; Function Attrs: mustprogress uwtable
define internal noundef zeroext i1 @"_ZNSt17_Function_handlerIFvvEZZN13cmSystemTools16RunSingleCommandERKSt6vectorINSt7__cxx1112basic_stringIcSt11char_traitsIcESaIcEEESaIS8_EEPS8_SD_PiPKcNS1_12OutputOptionENSt6chrono8durationIdSt5ratioILl1ELl1EEEEN15cmProcessOutput8EncodingEENK3$_1clERN2cm11uv_pipe_ptrEiSD_RS2_IcS7_EiPFvRKS8_ERbEUlvE_E10_M_managerERSt9_Any_dataRKS12_St18_Manager_operation"(ptr noundef nonnull align 8 captures(none) dereferenceable(16) %0, ptr noundef nonnull readonly align 8 captures(none) dereferenceable(16) %1, i32 noundef %2) #3 align 2 {
  switch i32 %2, label %"_ZNSt14_Function_base13_Base_managerIZZN13cmSystemTools16RunSingleCommandERKSt6vectorINSt7__cxx1112basic_stringIcSt11char_traitsIcESaIcEEESaIS8_EEPS8_SD_PiPKcNS1_12OutputOptionENSt6chrono8durationIdSt5ratioILl1ELl1EEEEN15cmProcessOutput8EncodingEENK3$_1clERN2cm11uv_pipe_ptrEiSD_RS2_IcS7_EiPFvRKS8_ERbEUlvE_E10_M_managerERSt9_Any_dataRKS12_St18_Manager_operation.exit" [
    i32 0, label %4
    i32 1, label %5
    i32 3, label %8
    i32 2, label %6
  ]

4:                                                ; preds = %3
  store ptr @"_ZTIZZN13cmSystemTools16RunSingleCommandERKSt6vectorINSt7__cxx1112basic_stringIcSt11char_traitsIcESaIcEEESaIS6_EEPS6_SB_PiPKcNS_12OutputOptionENSt6chrono8durationIdSt5ratioILl1ELl1EEEEN15cmProcessOutput8EncodingEENK3$_1clERN2cm11uv_pipe_ptrEiSB_RS0_IcS5_EiPFvRKS6_ERbEUlvE_", ptr %0, align 8, !tbaa !790
  br label %"_ZNSt14_Function_base13_Base_managerIZZN13cmSystemTools16RunSingleCommandERKSt6vectorINSt7__cxx1112basic_stringIcSt11char_traitsIcESaIcEEESaIS8_EEPS8_SD_PiPKcNS1_12OutputOptionENSt6chrono8durationIdSt5ratioILl1ELl1EEEEN15cmProcessOutput8EncodingEENK3$_1clERN2cm11uv_pipe_ptrEiSD_RS2_IcS7_EiPFvRKS8_ERbEUlvE_E10_M_managerERSt9_Any_dataRKS12_St18_Manager_operation.exit"

5:                                                ; preds = %3
  %.val = load ptr, ptr %1, align 8, !tbaa !63
  store ptr %.val, ptr %0, align 8, !tbaa !63
  br label %"_ZNSt14_Function_base13_Base_managerIZZN13cmSystemTools16RunSingleCommandERKSt6vectorINSt7__cxx1112basic_stringIcSt11char_traitsIcESaIcEEESaIS8_EEPS8_SD_PiPKcNS1_12OutputOptionENSt6chrono8durationIdSt5ratioILl1ELl1EEEEN15cmProcessOutput8EncodingEENK3$_1clERN2cm11uv_pipe_ptrEiSD_RS2_IcS7_EiPFvRKS8_ERbEUlvE_E10_M_managerERSt9_Any_dataRKS12_St18_Manager_operation.exit"

6:                                                ; preds = %3
  %.val6 = load ptr, ptr %1, align 8
  %7 = tail call noalias noundef nonnull dereferenceable(40) ptr @_Znwm(i64 noundef 40) #42
  tail call void @llvm.memcpy.p0.p0.i64(ptr noundef nonnull align 16 dereferenceable(40) %7, ptr noundef nonnull readonly align 8 dereferenceable(40) %.val6, i64 40, i1 false), !tbaa.struct !799
  store ptr %7, ptr %0, align 8, !tbaa !63
  br label %"_ZNSt14_Function_base13_Base_managerIZZN13cmSystemTools16RunSingleCommandERKSt6vectorINSt7__cxx1112basic_stringIcSt11char_traitsIcESaIcEEESaIS8_EEPS8_SD_PiPKcNS1_12OutputOptionENSt6chrono8durationIdSt5ratioILl1ELl1EEEEN15cmProcessOutput8EncodingEENK3$_1clERN2cm11uv_pipe_ptrEiSD_RS2_IcS7_EiPFvRKS8_ERbEUlvE_E10_M_managerERSt9_Any_dataRKS12_St18_Manager_operation.exit"

8:                                                ; preds = %3
  %.val7.i = load ptr, ptr %0, align 8, !tbaa !63
  %9 = icmp eq ptr %.val7.i, null
  br i1 %9, label %"_ZNSt14_Function_base13_Base_managerIZZN13cmSystemTools16RunSingleCommandERKSt6vectorINSt7__cxx1112basic_stringIcSt11char_traitsIcESaIcEEESaIS8_EEPS8_SD_PiPKcNS1_12OutputOptionENSt6chrono8durationIdSt5ratioILl1ELl1EEEEN15cmProcessOutput8EncodingEENK3$_1clERN2cm11uv_pipe_ptrEiSD_RS2_IcS7_EiPFvRKS8_ERbEUlvE_E10_M_managerERSt9_Any_dataRKS12_St18_Manager_operation.exit", label %10

10:                                               ; preds = %8
  tail call void @_ZdlPvm(ptr noundef nonnull %.val7.i, i64 noundef 40) #38
  br label %"_ZNSt14_Function_base13_Base_managerIZZN13cmSystemTools16RunSingleCommandERKSt6vectorINSt7__cxx1112basic_stringIcSt11char_traitsIcESaIcEEESaIS8_EEPS8_SD_PiPKcNS1_12OutputOptionENSt6chrono8durationIdSt5ratioILl1ELl1EEEEN15cmProcessOutput8EncodingEENK3$_1clERN2cm11uv_pipe_ptrEiSD_RS2_IcS7_EiPFvRKS8_ERbEUlvE_E10_M_managerERSt9_Any_dataRKS12_St18_Manager_operation.exit"

"_ZNSt14_Function_base13_Base_managerIZZN13cmSystemTools16RunSingleCommandERKSt6vectorINSt7__cxx1112basic_stringIcSt11char_traitsIcESaIcEEESaIS8_EEPS8_SD_PiPKcNS1_12OutputOptionENSt6chrono8durationIdSt5ratioILl1ELl1EEEEN15cmProcessOutput8EncodingEENK3$_1clERN2cm11uv_pipe_ptrEiSD_RS2_IcS7_EiPFvRKS8_ERbEUlvE_E10_M_managerERSt9_Any_dataRKS12_St18_Manager_operation.exit": ; preds = %3, %10, %8, %6, %5, %4
  ret i1 false
}